; Function Attrs: mustprogress nofree norecurse nosync nounwind memory(readwrite, inaccessiblemem: none) uwtable
define hidden noundef zeroext i1 @_ZN11klassVtable21adjust_default_methodEiP6MethodS1_(ptr nocapture noundef nonnull readonly align 8 dereferenceable(16) %0, i32 noundef %1, ptr noundef readnone %2, ptr noundef %3) local_unnamed_addr #6 align 2 {
  %5 = load ptr, ptr %0, align 8
  %6 = getelementptr inbounds i8, ptr %5, i64 408
  %7 = load ptr, ptr %6, align 8
  %.not = icmp eq ptr %7, null
  br i1 %.not, label %.loopexit, label %8

8:                                                ; preds = %4
  %9 = load i32, ptr %7, align 8
  %10 = icmp sgt i32 %9, 0
  br i1 %10, label %.lr.ph, label %.loopexit

.lr.ph:                                           ; preds = %8
  %11 = getelementptr inbounds i8, ptr %5, i64 440
  %12 = load ptr, ptr %11, align 8
  %13 = getelementptr inbounds i8, ptr %12, i64 4
  %wide.trip.count = zext nneg i32 %9 to i64
  br label %15

14:                                               ; preds = %15
  %indvars.iv.next = add nuw nsw i64 %indvars.iv, 1
  %exitcond.not = icmp eq i64 %indvars.iv.next, %wide.trip.count
  br i1 %exitcond.not, label %.loopexit, label %15, !llvm.loop !25

15:                                               ; preds = %.lr.ph, %14
  %indvars.iv = phi i64 [ 0, %.lr.ph ], [ %indvars.iv.next, %14 ]
  %16 = getelementptr inbounds i32, ptr %13, i64 %indvars.iv
  %17 = load i32, ptr %16, align 4
  %18 = icmp eq i32 %17, %1
  br i1 %18, label %19, label %14

19:                                               ; preds = %15
  %20 = getelementptr inbounds i8, ptr %7, i64 8
  %21 = getelementptr inbounds ptr, ptr %20, i64 %indvars.iv
  %22 = load ptr, ptr %21, align 8
  %23 = icmp eq ptr %22, %2
  br i1 %23, label %24, label %.loopexit

24:                                               ; preds = %19
  store ptr %3, ptr %21, align 8
  br label %.loopexit

.loopexit:                                        ; preds = %14, %8, %24, %19, %4
  %.013 = phi i1 [ true, %24 ], [ false, %19 ], [ false, %4 ], [ false, %8 ], [ false, %14 ]
  ret i1 %.013
}